; Function Attrs: mustprogress nofree norecurse nosync nounwind willreturn memory(argmem: readwrite) uwtable
define range(i64 0, 18446744074) i64 @SSL_CTX_set_timeout(ptr noundef captures(address_is_null) %0, i64 noundef %1) local_unnamed_addr #0 {
  %3 = icmp eq ptr %0, null
  br i1 %3, label %9, label %4

4:                                                ; preds = %2
  %5 = getelementptr inbounds nuw i8, ptr %0, i64 88
  %6 = load i64, ptr %5, align 8
  %7 = udiv i64 %6, 1000000000
  %8 = mul i64 %1, 1000000000
  store i64 %8, ptr %5, align 8, !tbaa !3
  br label %9

9:                                                ; preds = %2, %4
  %.0 = phi i64 [ %7, %4 ], [ 0, %2 ]
  ret i64 %.0
}